; Function Attrs: nounwind uwtable
define ptr @l_List_mapTR_loop___at_Lean_Server_ServerTask_waitAny___spec__1___rarg(ptr noundef %0, ptr noundef %1) #0 {
  br label %3

3:                                                ; preds = %.backedge, %2
  %.022 = phi ptr [ %1, %2 ], [ %.022.be, %.backedge ]
  %.0 = phi ptr [ %0, %2 ], [ %.0.be, %.backedge ]
  %4 = ptrtoint ptr %.0 to i64
  %5 = and i64 %4, 1
  %.not.i25 = icmp eq i64 %5, 0
  br i1 %.not.i25, label %9, label %6

6:                                                ; preds = %3
  %7 = lshr i64 %4, 1
  %8 = trunc i64 %7 to i32
  br label %lean_obj_tag.exit

9:                                                ; preds = %3
  %10 = getelementptr i8, ptr %.0, i64 4
  %.val.i = load i32, ptr %10, align 4
  %11 = lshr i32 %.val.i, 24
  br label %lean_obj_tag.exit

lean_obj_tag.exit:                                ; preds = %6, %9
  %.0.i = phi i32 [ %8, %6 ], [ %11, %9 ]
  %12 = icmp eq i32 %.0.i, 0
  br i1 %12, label %13, label %15

13:                                               ; preds = %lean_obj_tag.exit
  %14 = tail call ptr @l_List_reverse___rarg(ptr noundef %.022) #4
  ret ptr %14

15:                                               ; preds = %lean_obj_tag.exit
  %.0.val = load i32, ptr %.0, align 4, !tbaa !4
  %16 = icmp eq i32 %.0.val, 1
  br i1 %16, label %17, label %20

17:                                               ; preds = %15
  %18 = getelementptr inbounds nuw i8, ptr %.0, i64 16
  %19 = load ptr, ptr %18, align 8, !tbaa !9
  store ptr %.022, ptr %18, align 8, !tbaa !9
  br label %.backedge

20:                                               ; preds = %15
  %21 = getelementptr inbounds nuw i8, ptr %.0, i64 8
  %22 = load ptr, ptr %21, align 8, !tbaa !9
  %23 = getelementptr inbounds nuw i8, ptr %.0, i64 16
  %24 = load ptr, ptr %23, align 8, !tbaa !9
  %25 = ptrtoint ptr %24 to i64
  %26 = and i64 %25, 1
  %.not = icmp eq i64 %26, 0
  br i1 %.not, label %27, label %lean_inc.exit24

27:                                               ; preds = %20
  %.val.i26 = load i32, ptr %24, align 4, !tbaa !4
  %28 = icmp sgt i32 %.val.i26, 0
  br i1 %28, label %29, label %31, !prof !13

29:                                               ; preds = %27
  %30 = add nuw i32 %.val.i26, 1
  store i32 %30, ptr %24, align 4, !tbaa !4
  br label %lean_inc.exit24

31:                                               ; preds = %27
  %.not.i27 = icmp eq i32 %.val.i26, 0
  br i1 %.not.i27, label %lean_inc.exit24, label %32

32:                                               ; preds = %31
  tail call void @lean_inc_ref_cold(ptr noundef nonnull %24) #4
  br label %lean_inc.exit24

lean_inc.exit24:                                  ; preds = %32, %31, %29, %20
  %33 = ptrtoint ptr %22 to i64
  %34 = and i64 %33, 1
  %.not31 = icmp eq i64 %34, 0
  br i1 %.not31, label %35, label %lean_inc.exit

35:                                               ; preds = %lean_inc.exit24
  %.val.i28 = load i32, ptr %22, align 4, !tbaa !4
  %36 = icmp sgt i32 %.val.i28, 0
  br i1 %36, label %37, label %39, !prof !13

37:                                               ; preds = %35
  %38 = add nuw i32 %.val.i28, 1
  store i32 %38, ptr %22, align 4, !tbaa !4
  br label %lean_inc.exit

39:                                               ; preds = %35
  %.not.i29 = icmp eq i32 %.val.i28, 0
  br i1 %.not.i29, label %lean_inc.exit, label %40

40:                                               ; preds = %39
  tail call void @lean_inc_ref_cold(ptr noundef nonnull %22) #4
  br label %lean_inc.exit

lean_inc.exit:                                    ; preds = %40, %39, %37, %lean_inc.exit24
  br i1 %.not.i25, label %41, label %lean_dec.exit

41:                                               ; preds = %lean_inc.exit
  %42 = load i32, ptr %.0, align 4, !tbaa !4
  %43 = icmp sgt i32 %42, 1
  br i1 %43, label %44, label %46, !prof !13

44:                                               ; preds = %41
  %45 = add nsw i32 %42, -1
  store i32 %45, ptr %.0, align 4, !tbaa !4
  br label %lean_dec.exit

46:                                               ; preds = %41
  %.not.i = icmp eq i32 %42, 0
  br i1 %.not.i, label %lean_dec.exit, label %47

47:                                               ; preds = %46
  tail call void @lean_dec_ref_cold(ptr noundef nonnull %.0) #4
  br label %lean_dec.exit

lean_dec.exit:                                    ; preds = %47, %46, %44, %lean_inc.exit
  tail call void @lean_inc_heartbeat() #4
  %48 = tail call noalias ptr @mi_malloc_small(i64 noundef 24) #4
  %49 = icmp eq ptr %48, null
  br i1 %49, label %50, label %lean_alloc_ctor.exit

50:                                               ; preds = %lean_dec.exit
  tail call void @lean_internal_panic_out_of_memory() #5
  unreachable

lean_alloc_ctor.exit:                             ; preds = %lean_dec.exit
  %51 = getelementptr inbounds nuw i8, ptr %48, i64 4
  store i32 1, ptr %48, align 4, !tbaa !4
  store i32 16908312, ptr %51, align 4
  %52 = getelementptr inbounds nuw i8, ptr %48, i64 8
  store ptr %22, ptr %52, align 8, !tbaa !9
  %53 = getelementptr inbounds nuw i8, ptr %48, i64 16
  store ptr %.022, ptr %53, align 8, !tbaa !9
  br label %.backedge

.backedge:                                        ; preds = %lean_alloc_ctor.exit, %17
  %.022.be = phi ptr [ %.0, %17 ], [ %48, %lean_alloc_ctor.exit ]
  %.0.be = phi ptr [ %19, %17 ], [ %24, %lean_alloc_ctor.exit ]
  br label %3
}